; Function Attrs: mustprogress nofree norecurse nosync nounwind willreturn memory(read, inaccessiblemem: none) uwtable
define hidden noundef i32 @_ZN9CodeCache13nmethod_countE12CodeBlobType(i32 noundef %0) local_unnamed_addr #5 align 2 {
  %2 = load ptr, ptr @_ZN9CodeCache6_heapsE, align 8
  %3 = load i32, ptr %2, align 4
  %.not8.i = icmp eq i32 %3, 0
  br i1 %.not8.i, label %_ZN9CodeCache13get_code_heapE12CodeBlobType.exit.thread, label %.lr.ph.i

.lr.ph.i:                                         ; preds = %1
  %4 = getelementptr inbounds i8, ptr %2, i64 8
  %5 = load ptr, ptr %4, align 8
  %6 = zext i32 %3 to i64
  br label %8

7:                                                ; preds = %8
  %indvars.iv.next.i = add nuw nsw i64 %indvars.iv.i, 1
  %.not.i = icmp eq i64 %indvars.iv.next.i, %6
  br i1 %.not.i, label %_ZN9CodeCache13get_code_heapE12CodeBlobType.exit.thread, label %8, !llvm.loop !23

8:                                                ; preds = %7, %.lr.ph.i
  %indvars.iv.i = phi i64 [ 0, %.lr.ph.i ], [ %indvars.iv.next.i, %7 ]
  %9 = getelementptr inbounds ptr, ptr %5, i64 %indvars.iv.i
  %10 = load ptr, ptr %9, align 8
  %11 = getelementptr inbounds i8, ptr %10, i64 312
  %12 = load i32, ptr %11, align 8
  %13 = icmp eq i32 %12, 3
  %14 = icmp eq i32 %12, %0
  %spec.select.i.i = or i1 %13, %14
  br i1 %spec.select.i.i, label %_ZN9CodeCache13get_code_heapE12CodeBlobType.exit, label %7

_ZN9CodeCache13get_code_heapE12CodeBlobType.exit: ; preds = %8
  %15 = getelementptr inbounds i8, ptr %10, i64 320
  %16 = load i32, ptr %15, align 8
  br label %_ZN9CodeCache13get_code_heapE12CodeBlobType.exit.thread

_ZN9CodeCache13get_code_heapE12CodeBlobType.exit.thread: ; preds = %7, %1, %_ZN9CodeCache13get_code_heapE12CodeBlobType.exit
  %17 = phi i32 [ %16, %_ZN9CodeCache13get_code_heapE12CodeBlobType.exit ], [ 0, %1 ], [ 0, %7 ]
  ret i32 %17
}